; Function Attrs: nofree norecurse nosync nounwind memory(read, inaccessiblemem: none) uwtable
define range(i32 -2147483648, 2147483647) i32 @Fra_FraigMiterAssertedOutput(ptr noundef readonly captures(none) %0) local_unnamed_addr #0 {
  %2 = getelementptr i8, ptr %0, i64 140
  %.val = load i32, ptr %2, align 4, !tbaa !21
  %3 = getelementptr i8, ptr %0, i64 104
  %.val17 = load i32, ptr %3, align 8, !tbaa !22
  %4 = sub nsw i32 %.val, %.val17
  %5 = icmp sgt i32 %4, 0
  br i1 %5, label %.lr.ph, label %.critedge

.lr.ph:                                           ; preds = %1
  %6 = getelementptr inbounds nuw i8, ptr %0, i64 24
  %7 = load ptr, ptr %6, align 8, !tbaa !23
  %8 = getelementptr i8, ptr %7, i64 8
  %.val18 = load ptr, ptr %8, align 8, !tbaa !24
  %9 = getelementptr i8, ptr %0, i64 48
  %.val20 = load ptr, ptr %9, align 8, !tbaa !26
  %10 = ptrtoint ptr %.val20 to i64
  %11 = xor i64 %10, 1
  %12 = inttoptr i64 %11 to ptr
  %wide.trip.count = zext nneg i32 %4 to i64
  br label %13

13:                                               ; preds = %.lr.ph, %31
  %indvars.iv = phi i64 [ 0, %.lr.ph ], [ %indvars.iv.next, %31 ]
  %14 = getelementptr inbounds nuw ptr, ptr %.val18, i64 %indvars.iv
  %15 = load ptr, ptr %14, align 8, !tbaa !27
  %16 = getelementptr i8, ptr %15, i64 8
  %.val19 = load ptr, ptr %16, align 8, !tbaa !28
  %17 = icmp eq ptr %.val19, %12
  br i1 %17, label %31, label %18

18:                                               ; preds = %13
  %19 = icmp eq ptr %.val19, %.val20
  br i1 %19, label %.critedge.loopexit.split.loop.exit30, label %20

20:                                               ; preds = %18
  %21 = ptrtoint ptr %.val19 to i64
  %22 = and i64 %21, -2
  %23 = inttoptr i64 %22 to ptr
  %24 = getelementptr inbounds nuw i8, ptr %23, i64 24
  %25 = load i64, ptr %24, align 8
  %26 = trunc i64 %25 to i32
  %27 = lshr i32 %26, 3
  %28 = trunc i64 %21 to i32
  %29 = xor i32 %27, %28
  %30 = and i32 %29, 1
  %.not = icmp eq i32 %30, 0
  br i1 %.not, label %31, label %.critedge.loopexit.split.loop.exit28

31:                                               ; preds = %20, %13
  %indvars.iv.next = add nuw nsw i64 %indvars.iv, 1
  %exitcond.not = icmp eq i64 %indvars.iv.next, %wide.trip.count
  br i1 %exitcond.not, label %.critedge, label %13, !llvm.loop !33

.critedge.loopexit.split.loop.exit28:             ; preds = %20
  %32 = trunc nuw nsw i64 %indvars.iv to i32
  br label %.critedge

.critedge.loopexit.split.loop.exit30:             ; preds = %18
  %33 = trunc nuw nsw i64 %indvars.iv to i32
  br label %.critedge

.critedge:                                        ; preds = %31, %.critedge.loopexit.split.loop.exit28, %.critedge.loopexit.split.loop.exit30, %1
  %.015 = phi i32 [ -1, %1 ], [ %32, %.critedge.loopexit.split.loop.exit28 ], [ %33, %.critedge.loopexit.split.loop.exit30 ], [ -1, %31 ]
  ret i32 %.015
}